target datalayout = "e-m:e-p270:32:32-p271:32:32-p272:64:64-i64:64-i128:128-f80:128-n8:16:32:64-S128"
target triple = "x86_64-pc-linux-gnu"

%struct.anon = type { i32, [0 x i8] }
%struct.varattrib_1b = type { i8, [0 x i8] }
%struct.varattrib_1b_e = type { i8, i8, [0 x i8] }
%struct.FunctionCallInfoBaseData = type { ptr, ptr, ptr, i32, i8, i16, [0 x %struct.NullableDatum] }
%struct.NullableDatum = type { i64, i8 }
%struct.nameData = type { [64 x i8] }

@.str.2 = private unnamed_addr constant [10 x i8] c"varlena.c\00", align 1
@.str.36 = private unnamed_addr constant [65 x i8] c"could not determine which collation to use for string comparison\00", align 1
@.str.37 = private unnamed_addr constant [56 x i8] c"Use the COLLATE clause to set the collation explicitly.\00", align 1
@__func__.check_collation_set = private unnamed_addr constant [20 x i8] c"check_collation_set\00", align 1

; Function Attrs: inlinehint nounwind uwtable
define internal i64 @BoolGetDatum(i1 noundef zeroext %0) #0 {
  %2 = alloca i8, align 1
  %3 = zext i1 %0 to i8
  store i8 %3, ptr %2, align 1
  %4 = load i8, ptr %2, align 1, !range !9, !noundef !10
  %5 = trunc i8 %4 to i1
  %6 = select i1 %5, i32 1, i32 0
  %7 = sext i32 %6 to i64
  ret i64 %7
}

; Function Attrs: nounwind uwtable
define internal void @check_collation_set(i32 noundef %0) #1 {
  %2 = alloca i32, align 4
  store i32 %0, ptr %2, align 4
  %3 = load i32, ptr %2, align 4
  %4 = icmp ne i32 %3, 0
  br i1 %4, label %17, label %5

5:                                                ; preds = %1
  br label %6

6:                                                ; preds = %5
  br i1 true, label %7, label %9

7:                                                ; preds = %6
  %8 = call zeroext i1 @errstart_cold(i32 noundef 21, ptr noundef null) #14
  br i1 %8, label %11, label %15

9:                                                ; preds = %6
  %10 = call zeroext i1 @errstart(i32 noundef 21, ptr noundef null)
  br i1 %10, label %11, label %15

11:                                               ; preds = %9, %7
  %12 = call i32 @errcode(i32 noundef 34209924)
  %13 = call i32 (ptr, ...) @errmsg(ptr noundef @.str.36)
  %14 = call i32 (ptr, ...) @errhint(ptr noundef @.str.37)
  call void @errfinish(ptr noundef @.str.2, i32 noundef 1520, ptr noundef @__func__.check_collation_set)
  br label %15

15:                                               ; preds = %11, %9, %7
  unreachable

16:                                               ; No predecessors!
  br label %17

17:                                               ; preds = %16, %1
  ret void
}

; Function Attrs: inlinehint nounwind uwtable
define internal ptr @DatumGetName(i64 noundef %0) #0 {
  %2 = alloca i64, align 8
  store i64 %0, ptr %2, align 8
  %3 = load i64, ptr %2, align 8
  %4 = call ptr @DatumGetPointer(i64 noundef %3)
  ret ptr %4
}

; Function Attrs: inlinehint nounwind uwtable
define internal ptr @DatumGetPointer(i64 noundef %0) #0 {
  %2 = alloca i64, align 8
  store i64 %0, ptr %2, align 8
  %3 = load i64, ptr %2, align 8
  %4 = inttoptr i64 %3 to ptr
  ret ptr %4
}

; Function Attrs: nounwind uwtable
define dso_local i64 @textnename(ptr noundef %0) #1 {
  %2 = alloca ptr, align 8
  %3 = alloca ptr, align 8
  %4 = alloca ptr, align 8
  %5 = alloca i64, align 8
  %6 = alloca i64, align 8
  %7 = alloca i32, align 4
  %8 = alloca i8, align 1
  store ptr %0, ptr %2, align 8
  call void @llvm.lifetime.start.p0(i64 8, ptr %3) #13
  %9 = load ptr, ptr %2, align 8
  %10 = getelementptr inbounds nuw %struct.FunctionCallInfoBaseData, ptr %9, i32 0, i32 6
  %11 = getelementptr inbounds [0 x %struct.NullableDatum], ptr %10, i64 0, i64 0
  %12 = getelementptr inbounds nuw %struct.NullableDatum, ptr %11, i32 0, i32 0
  %13 = load i64, ptr %12, align 8
  %14 = call ptr @DatumGetPointer(i64 noundef %13)
  %15 = call ptr @pg_detoast_datum_packed(ptr noundef %14)
  store ptr %15, ptr %3, align 8
  call void @llvm.lifetime.start.p0(i64 8, ptr %4) #13
  %16 = load ptr, ptr %2, align 8
  %17 = getelementptr inbounds nuw %struct.FunctionCallInfoBaseData, ptr %16, i32 0, i32 6
  %18 = getelementptr inbounds [0 x %struct.NullableDatum], ptr %17, i64 0, i64 1
  %19 = getelementptr inbounds nuw %struct.NullableDatum, ptr %18, i32 0, i32 0
  %20 = load i64, ptr %19, align 8
  %21 = call ptr @DatumGetName(i64 noundef %20)
  store ptr %21, ptr %4, align 8
  call void @llvm.lifetime.start.p0(i64 8, ptr %5) #13
  %22 = load ptr, ptr %3, align 8
  %23 = getelementptr inbounds nuw %struct.varattrib_1b, ptr %22, i32 0, i32 0
  %24 = load i8, ptr %23, align 1
  %25 = zext i8 %24 to i32
  %26 = icmp eq i32 %25, 1
  br i1 %26, label %27, label %55

27:                                               ; preds = %1
  %28 = load ptr, ptr %3, align 8
  %29 = getelementptr inbounds nuw %struct.varattrib_1b_e, ptr %28, i32 0, i32 1
  %30 = load i8, ptr %29, align 1
  %31 = zext i8 %30 to i32
  %32 = icmp eq i32 %31, 1
  br i1 %32, label %33, label %34

33:                                               ; preds = %27
  br label %51

34:                                               ; preds = %27
  %35 = load ptr, ptr %3, align 8
  %36 = getelementptr inbounds nuw %struct.varattrib_1b_e, ptr %35, i32 0, i32 1
  %37 = load i8, ptr %36, align 1
  %38 = zext i8 %37 to i32
  %39 = and i32 %38, -2
  %40 = icmp eq i32 %39, 2
  br i1 %40, label %41, label %42

41:                                               ; preds = %34
  br label %49

42:                                               ; preds = %34
  %43 = load ptr, ptr %3, align 8
  %44 = getelementptr inbounds nuw %struct.varattrib_1b_e, ptr %43, i32 0, i32 1
  %45 = load i8, ptr %44, align 1
  %46 = zext i8 %45 to i32
  %47 = icmp eq i32 %46, 18
  %48 = select i1 %47, i64 16, i64 0
  br label %49

49:                                               ; preds = %42, %41
  %50 = phi i64 [ 8, %41 ], [ %48, %42 ]
  br label %51

51:                                               ; preds = %49, %33
  %52 = phi i64 [ 8, %33 ], [ %50, %49 ]
  %53 = add i64 2, %52
  %54 = sub i64 %53, 2
  br label %81

55:                                               ; preds = %1
  %56 = load ptr, ptr %3, align 8
  %57 = getelementptr inbounds nuw %struct.varattrib_1b, ptr %56, i32 0, i32 0
  %58 = load i8, ptr %57, align 1
  %59 = zext i8 %58 to i32
  %60 = and i32 %59, 1
  %61 = icmp eq i32 %60, 1
  br i1 %61, label %62, label %71

62:                                               ; preds = %55
  %63 = load ptr, ptr %3, align 8
  %64 = getelementptr inbounds nuw %struct.varattrib_1b, ptr %63, i32 0, i32 0
  %65 = load i8, ptr %64, align 1
  %66 = zext i8 %65 to i32
  %67 = ashr i32 %66, 1
  %68 = and i32 %67, 127
  %69 = sext i32 %68 to i64
  %70 = sub i64 %69, 1
  br label %79

71:                                               ; preds = %55
  %72 = load ptr, ptr %3, align 8
  %73 = getelementptr inbounds nuw %struct.anon, ptr %72, i32 0, i32 0
  %74 = load i32, ptr %73, align 4
  %75 = lshr i32 %74, 2
  %76 = and i32 %75, 1073741823
  %77 = sub i32 %76, 4
  %78 = zext i32 %77 to i64
  br label %79

79:                                               ; preds = %71, %62
  %80 = phi i64 [ %70, %62 ], [ %78, %71 ]
  br label %81

81:                                               ; preds = %79, %51
  %82 = phi i64 [ %54, %51 ], [ %80, %79 ]
  store i64 %82, ptr %5, align 8
  call void @llvm.lifetime.start.p0(i64 8, ptr %6) #13
  %83 = load ptr, ptr %4, align 8
  %84 = getelementptr inbounds nuw %struct.nameData, ptr %83, i32 0, i32 0
  %85 = getelementptr inbounds [64 x i8], ptr %84, i64 0, i64 0
  %86 = call i64 @strlen(ptr noundef %85) #12
  store i64 %86, ptr %6, align 8
  call void @llvm.lifetime.start.p0(i64 4, ptr %7) #13
  %87 = load ptr, ptr %2, align 8
  %88 = getelementptr inbounds nuw %struct.FunctionCallInfoBaseData, ptr %87, i32 0, i32 3
  %89 = load i32, ptr %88, align 8
  store i32 %89, ptr %7, align 4
  call void @llvm.lifetime.start.p0(i64 1, ptr %8) #13
  %90 = load i32, ptr %7, align 4
  call void @check_collation_set(i32 noundef %90)
  %91 = load i32, ptr %7, align 4
  %92 = icmp eq i32 %91, 950
  br i1 %92, label %93, label %124

93:                                               ; preds = %81
  %94 = load i64, ptr %5, align 8
  %95 = load i64, ptr %6, align 8
  %96 = icmp eq i64 %94, %95
  br i1 %96, label %97, label %120

97:                                               ; preds = %93
  %98 = load ptr, ptr %3, align 8
  %99 = getelementptr inbounds nuw %struct.varattrib_1b, ptr %98, i32 0, i32 0
  %100 = load i8, ptr %99, align 1
  %101 = zext i8 %100 to i32
  %102 = and i32 %101, 1
  %103 = icmp eq i32 %102, 1
  br i1 %103, label %104, label %108

104:                                              ; preds = %97
  %105 = load ptr, ptr %3, align 8
  %106 = getelementptr inbounds nuw %struct.varattrib_1b, ptr %105, i32 0, i32 1
  %107 = getelementptr inbounds [0 x i8], ptr %106, i64 0, i64 0
  br label %112

108:                                              ; preds = %97
  %109 = load ptr, ptr %3, align 8
  %110 = getelementptr inbounds nuw %struct.anon, ptr %109, i32 0, i32 1
  %111 = getelementptr inbounds [0 x i8], ptr %110, i64 0, i64 0
  br label %112

112:                                              ; preds = %108, %104
  %113 = phi ptr [ %107, %104 ], [ %111, %108 ]
  %114 = load ptr, ptr %4, align 8
  %115 = getelementptr inbounds nuw %struct.nameData, ptr %114, i32 0, i32 0
  %116 = getelementptr inbounds [64 x i8], ptr %115, i64 0, i64 0
  %117 = load i64, ptr %5, align 8
  %118 = call i32 @memcmp(ptr noundef %113, ptr noundef %116, i64 noundef %117) #12
  %119 = icmp eq i32 %118, 0
  br label %120

120:                                              ; preds = %112, %93
  %121 = phi i1 [ false, %93 ], [ %119, %112 ]
  %122 = xor i1 %121, true
  %123 = zext i1 %122 to i8
  store i8 %123, ptr %8, align 1
  br label %153

124:                                              ; preds = %81
  %125 = load ptr, ptr %3, align 8
  %126 = getelementptr inbounds nuw %struct.varattrib_1b, ptr %125, i32 0, i32 0
  %127 = load i8, ptr %126, align 1
  %128 = zext i8 %127 to i32
  %129 = and i32 %128, 1
  %130 = icmp eq i32 %129, 1
  br i1 %130, label %131, label %135

131:                                              ; preds = %124
  %132 = load ptr, ptr %3, align 8
  %133 = getelementptr inbounds nuw %struct.varattrib_1b, ptr %132, i32 0, i32 1
  %134 = getelementptr inbounds [0 x i8], ptr %133, i64 0, i64 0
  br label %139

135:                                              ; preds = %124
  %136 = load ptr, ptr %3, align 8
  %137 = getelementptr inbounds nuw %struct.anon, ptr %136, i32 0, i32 1
  %138 = getelementptr inbounds [0 x i8], ptr %137, i64 0, i64 0
  br label %139

139:                                              ; preds = %135, %131
  %140 = phi ptr [ %134, %131 ], [ %138, %135 ]
  %141 = load i64, ptr %5, align 8
  %142 = trunc i64 %141 to i32
  %143 = load ptr, ptr %4, align 8
  %144 = getelementptr inbounds nuw %struct.nameData, ptr %143, i32 0, i32 0
  %145 = getelementptr inbounds [64 x i8], ptr %144, i64 0, i64 0
  %146 = load i64, ptr %6, align 8
  %147 = trunc i64 %146 to i32
  %148 = load i32, ptr %7, align 4
  %149 = call i32 @varstr_cmp(ptr noundef %140, i32 noundef %142, ptr noundef %145, i32 noundef %147, i32 noundef %148)
  %150 = icmp eq i32 %149, 0
  %151 = xor i1 %150, true
  %152 = zext i1 %151 to i8
  store i8 %152, ptr %8, align 1
  br label %153

153:                                              ; preds = %139, %120
  br label %154

154:                                              ; preds = %153
  %155 = load ptr, ptr %3, align 8
  %156 = load ptr, ptr %2, align 8
  %157 = getelementptr inbounds nuw %struct.FunctionCallInfoBaseData, ptr %156, i32 0, i32 6
  %158 = getelementptr inbounds [0 x %struct.NullableDatum], ptr %157, i64 0, i64 0
  %159 = getelementptr inbounds nuw %struct.NullableDatum, ptr %158, i32 0, i32 0
  %160 = load i64, ptr %159, align 8
  %161 = call ptr @DatumGetPointer(i64 noundef %160)
  %162 = icmp ne ptr %155, %161
  br i1 %162, label %163, label %165

163:                                              ; preds = %154
  %164 = load ptr, ptr %3, align 8
  call void @pfree(ptr noundef %164)
  br label %165

165:                                              ; preds = %163, %154
  br label %166

166:                                              ; preds = %165
  br label %167

167:                                              ; preds = %166
  %168 = load i8, ptr %8, align 1, !range !9, !noundef !10
  %169 = trunc i8 %168 to i1
  %170 = call i64 @BoolGetDatum(i1 noundef zeroext %169)
  call void @llvm.lifetime.end.p0(i64 1, ptr %8) #13
  call void @llvm.lifetime.end.p0(i64 4, ptr %7) #13
  call void @llvm.lifetime.end.p0(i64 8, ptr %6) #13
  call void @llvm.lifetime.end.p0(i64 8, ptr %5) #13
  call void @llvm.lifetime.end.p0(i64 8, ptr %4) #13
  call void @llvm.lifetime.end.p0(i64 8, ptr %3) #13
  ret i64 %170
}