; Function Attrs: nounwind uwtable
define dso_local range(i64 0, 2) i64 @textnename(ptr noundef readonly captures(none) %0) local_unnamed_addr #0 {
  %2 = getelementptr inbounds nuw i8, ptr %0, i64 32
  %3 = load i64, ptr %2, align 8
  %4 = inttoptr i64 %3 to ptr
  %5 = tail call ptr @pg_detoast_datum_packed(ptr noundef %4) #19
  %6 = getelementptr inbounds nuw i8, ptr %0, i64 48
  %7 = load i64, ptr %6, align 8
  %8 = inttoptr i64 %7 to ptr
  %9 = load i8, ptr %5, align 1
  %10 = zext i8 %9 to i32
  %11 = icmp eq i8 %9, 1
  br i1 %11, label %12, label %21

12:                                               ; preds = %1
  %13 = getelementptr inbounds nuw i8, ptr %5, i64 1
  %14 = load i8, ptr %13, align 1
  %15 = icmp eq i8 %14, 1
  %16 = and i8 %14, -2
  %17 = icmp eq i8 %16, 2
  %or.cond = or i1 %15, %17
  %18 = icmp eq i8 %14, 18
  %19 = select i1 %18, i64 16, i64 0
  %20 = select i1 %or.cond, i64 8, i64 %19
  br label %32

21:                                               ; preds = %1
  %22 = and i32 %10, 1
  %.not = icmp eq i32 %22, 0
  br i1 %.not, label %27, label %23

23:                                               ; preds = %21
  %24 = lshr i32 %10, 1
  %25 = zext nneg i32 %24 to i64
  %26 = add nsw i64 %25, -1
  br label %32

27:                                               ; preds = %21
  %28 = load i32, ptr %5, align 4
  %29 = lshr i32 %28, 2
  %30 = add nsw i32 %29, -4
  %31 = zext i32 %30 to i64
  br label %32

32:                                               ; preds = %23, %27, %12
  %33 = phi i64 [ %20, %12 ], [ %26, %23 ], [ %31, %27 ]
  %34 = tail call i64 @strlen(ptr noundef nonnull dereferenceable(1) %8) #18
  %35 = getelementptr inbounds nuw i8, ptr %0, i64 24
  %36 = load i32, ptr %35, align 8
  switch i32 %36, label %48 [
    i32 0, label %37
    i32 950, label %42
  ]

37:                                               ; preds = %32
  %38 = tail call zeroext i1 @errstart_cold(i32 noundef 21, ptr noundef null) #20
  tail call void @llvm.assume(i1 %38)
  %39 = tail call i32 @errcode(i32 noundef 34209924) #19
  %40 = tail call i32 (ptr, ...) @errmsg(ptr noundef nonnull @.str.36) #19
  %41 = tail call i32 (ptr, ...) @errhint(ptr noundef nonnull @.str.37) #19
  tail call void @errfinish(ptr noundef nonnull @.str.2, i32 noundef 1520, ptr noundef nonnull @__func__.check_collation_set) #19
  unreachable

42:                                               ; preds = %32
  %43 = icmp eq i64 %33, %34
  br i1 %43, label %44, label %55

44:                                               ; preds = %42
  %45 = and i8 %9, 1
  %.not36 = icmp eq i8 %45, 0
  %.v37 = select i1 %.not36, i64 4, i64 1
  %46 = getelementptr inbounds nuw i8, ptr %5, i64 %.v37
  %bcmp = tail call i32 @bcmp(ptr nonnull %46, ptr nonnull %8, i64 %33)
  %47 = icmp ne i32 %bcmp, 0
  br label %55

48:                                               ; preds = %32
  %49 = and i8 %9, 1
  %.not35 = icmp eq i8 %49, 0
  %.v = select i1 %.not35, i64 4, i64 1
  %50 = getelementptr inbounds nuw i8, ptr %5, i64 %.v
  %51 = trunc i64 %33 to i32
  %52 = trunc i64 %34 to i32
  %53 = tail call i32 @varstr_cmp(ptr noundef nonnull %50, i32 noundef %51, ptr noundef nonnull %8, i32 noundef %52, i32 noundef %36)
  %54 = icmp ne i32 %53, 0
  br label %55

55:                                               ; preds = %42, %44, %48
  %.0 = phi i1 [ %54, %48 ], [ true, %42 ], [ %47, %44 ]
  %56 = load i64, ptr %2, align 8
  %57 = inttoptr i64 %56 to ptr
  %.not38 = icmp eq ptr %5, %57
  br i1 %.not38, label %59, label %58

58:                                               ; preds = %55
  tail call void @pfree(ptr noundef nonnull %5) #19
  br label %59

59:                                               ; preds = %58, %55
  %60 = zext i1 %.0 to i64
  ret i64 %60
}